target datalayout = "e-m:e-p270:32:32-p271:32:32-p272:64:64-i64:64-i128:128-f80:128-n8:16:32:64-S128"
target triple = "x86_64-pc-linux-gnu"

%"class.std::__cxx11::basic_string" = type { %"struct.std::__cxx11::basic_string<char>::_Alloc_hider", i64, %union.anon }
%"struct.std::__cxx11::basic_string<char>::_Alloc_hider" = type { ptr }
%union.anon = type { i64, [8 x i8] }
%class.V3Number = type { %class.V3NumberData, ptr, ptr }
%class.V3NumberData = type <{ %union.anon.0, i32, i8, i8, [2 x i8] }>
%union.anon.0 = type { %"class.std::__cxx11::basic_string" }

; Function Attrs: mustprogress nounwind uwtable
define linkonce_odr dso_local noundef i32 @_ZNK12V3NumberData5widthEv(ptr noundef nonnull align 8 dereferenceable(40) %0) #7 comdat align 2 {
  %2 = alloca ptr, align 8
  store ptr %0, ptr %2, align 8, !tbaa !42
  %3 = load ptr, ptr %2, align 8
  %4 = getelementptr inbounds nuw %class.V3NumberData, ptr %3, i32 0, i32 1
  %5 = load i32, ptr %4, align 8, !tbaa !44
  ret i32 %5
}

; Function Attrs: mustprogress nounwind uwtable
define linkonce_odr dso_local noundef i32 @_ZNK8V3Number5widthEv(ptr noundef nonnull align 8 dereferenceable(56) %0) #7 comdat align 2 {
  %2 = alloca ptr, align 8
  store ptr %0, ptr %2, align 8, !tbaa !4
  %3 = load ptr, ptr %2, align 8
  %4 = getelementptr inbounds nuw %class.V3Number, ptr %3, i32 0, i32 0
  %5 = call noundef i32 @_ZNK12V3NumberData5widthEv(ptr noundef nonnull align 8 dereferenceable(40) %4)
  ret i32 %5
}

; Function Attrs: mustprogress nounwind uwtable
define linkonce_odr dso_local noundef zeroext i1 @_ZNK8V3Number8isSignedEv(ptr noundef nonnull align 8 dereferenceable(56) %0) #7 comdat align 2 {
  %2 = alloca ptr, align 8
  store ptr %0, ptr %2, align 8, !tbaa !4
  %3 = load ptr, ptr %2, align 8
  %4 = getelementptr inbounds nuw %class.V3Number, ptr %3, i32 0, i32 0
  %5 = getelementptr inbounds nuw %class.V3NumberData, ptr %4, i32 0, i32 3
  %6 = load i8, ptr %5, align 1
  %7 = lshr i8 %6, 1
  %8 = and i8 %7, 1
  %9 = trunc i8 %8 to i1
  ret i1 %9
}

; Function Attrs: mustprogress uwtable
define dso_local noundef i32 @_ZNK8V3Number6toSIntEv(ptr noundef nonnull align 8 dereferenceable(56) %0) #4 align 2 {
  %2 = alloca i32, align 4
  %3 = alloca ptr, align 8
  %4 = alloca i32, align 4
  %5 = alloca i32, align 4
  %6 = alloca i32, align 4
  store ptr %0, ptr %3, align 8, !tbaa !4
  %7 = load ptr, ptr %3, align 8
  %8 = call noundef zeroext i1 @_ZNK8V3Number8isSignedEv(ptr noundef nonnull align 8 dereferenceable(56) %7)
  br i1 %8, label %9, label %24

9:                                                ; preds = %1
  call void @llvm.lifetime.start.p0(i64 4, ptr %4) #3
  %10 = call noundef i32 @_ZNK8V3Number6toUIntEv(ptr noundef nonnull align 8 dereferenceable(56) %7)
  store i32 %10, ptr %4, align 4, !tbaa !33
  call void @llvm.lifetime.start.p0(i64 4, ptr %5) #3
  %11 = load i32, ptr %4, align 4, !tbaa !33
  %12 = zext i32 %11 to i64
  %13 = call noundef i32 @_ZNK8V3Number5widthEv(ptr noundef nonnull align 8 dereferenceable(56) %7)
  %14 = sub nsw i32 %13, 1
  %15 = zext i32 %14 to i64
  %16 = shl i64 1, %15
  %17 = and i64 %12, %16
  %18 = sub i64 0, %17
  %19 = trunc i64 %18 to i32
  store i32 %19, ptr %5, align 4, !tbaa !33
  call void @llvm.lifetime.start.p0(i64 4, ptr %6) #3
  %20 = load i32, ptr %4, align 4, !tbaa !33
  %21 = load i32, ptr %5, align 4, !tbaa !33
  %22 = or i32 %20, %21
  store i32 %22, ptr %6, align 4, !tbaa !33
  %23 = load i32, ptr %6, align 4, !tbaa !33
  store i32 %23, ptr %2, align 4
  call void @llvm.lifetime.end.p0(i64 4, ptr %6) #3
  call void @llvm.lifetime.end.p0(i64 4, ptr %5) #3
  call void @llvm.lifetime.end.p0(i64 4, ptr %4) #3
  br label %26

24:                                               ; preds = %1
  %25 = call noundef i32 @_ZNK8V3Number6toUIntEv(ptr noundef nonnull align 8 dereferenceable(56) %7)
  store i32 %25, ptr %2, align 4
  br label %26

26:                                               ; preds = %24, %9
  %27 = load i32, ptr %2, align 4
  ret i32 %27
}