; Function Attrs: mustprogress uwtable
define dso_local noundef i32 @_ZNK8V3Number6toSIntEv(ptr noundef nonnull align 8 dereferenceable(56) %0) #3 align 2 {
  %2 = getelementptr inbounds nuw i8, ptr %0, i64 37
  %3 = load i8, ptr %2, align 1
  %4 = and i8 %3, 2
  %.not = icmp eq i8 %4, 0
  %5 = tail call noundef i32 @_ZNK8V3Number6toUIntEv(ptr noundef nonnull align 8 dereferenceable(56) %0)
  br i1 %.not, label %16, label %6

6:                                                ; preds = %1
  %7 = getelementptr inbounds nuw i8, ptr %0, i64 32
  %8 = load i32, ptr %7, align 8, !tbaa !39
  %9 = add nsw i32 %8, -1
  %10 = zext nneg i32 %9 to i64
  %11 = shl nuw i64 1, %10
  %12 = trunc i64 %11 to i32
  %13 = and i32 %5, %12
  %14 = sub i32 0, %13
  %15 = or i32 %5, %14
  br label %16

16:                                               ; preds = %1, %6
  %.0 = phi i32 [ %15, %6 ], [ %5, %1 ]
  ret i32 %.0
}